; Function Attrs: cold nounwind optsize uwtable
define internal range(i32 -2147483648, 1) i32 @decode_init(ptr noundef %0) #1 {
  %2 = getelementptr inbounds nuw i8, ptr %0, i64 32
  %3 = load ptr, ptr %2, align 8, !tbaa !4
  %4 = getelementptr inbounds nuw i8, ptr %3, i64 4284
  store i32 -1, ptr %4, align 4, !tbaa !43
  %5 = getelementptr inbounds nuw i8, ptr %3, i64 4288
  store i32 -1, ptr %5, align 8, !tbaa !44
  %6 = tail call i32 @ff_ffv1_common_init(ptr noundef %0, ptr noundef %3) #11
  %7 = icmp slt i32 %6, 0
  br i1 %7, label %17, label %8

8:                                                ; preds = %1
  %9 = getelementptr inbounds nuw i8, ptr %0, i64 80
  %10 = load i32, ptr %9, align 8, !tbaa !67
  %11 = icmp sgt i32 %10, 0
  br i1 %11, label %12, label %15

12:                                               ; preds = %8
  %13 = tail call i32 @ff_ffv1_read_extra_header(ptr noundef nonnull %3) #11
  %14 = icmp slt i32 %13, 0
  br i1 %14, label %17, label %15

15:                                               ; preds = %12, %8
  %16 = tail call i32 @ff_ffv1_init_slice_contexts(ptr noundef nonnull %3) #11
  %. = tail call i32 @llvm.smin.i32(i32 %16, i32 0)
  br label %17

17:                                               ; preds = %15, %12, %1
  %.0 = phi i32 [ %6, %1 ], [ %13, %12 ], [ %., %15 ]
  ret i32 %.0
}